; Function Attrs: mustprogress nofree norecurse nosync nounwind willreturn memory(argmem: read) uwtable
define dso_local i64 @AllocSetGetChunkSpace(ptr noundef %0) local_unnamed_addr #9 {
  %2 = getelementptr inbounds i8, ptr %0, i64 -8
  %.val = load i64, ptr %2, align 8
  %3 = and i64 %.val, 16
  %.not = icmp eq i64 %3, 0
  br i1 %.not, label %10, label %4

4:                                                ; preds = %1
  %5 = getelementptr inbounds i8, ptr %0, i64 -16
  %6 = load ptr, ptr %5, align 8
  %7 = ptrtoint ptr %6 to i64
  %8 = ptrtoint ptr %2 to i64
  %9 = sub i64 %7, %8
  br label %15

10:                                               ; preds = %1
  %11 = lshr i64 %.val, 5
  %12 = and i64 %11, 1073741823
  %13 = shl i64 8, %12
  %14 = add nuw i64 %13, 8
  br label %15

15:                                               ; preds = %10, %4
  %.0 = phi i64 [ %9, %4 ], [ %14, %10 ]
  ret i64 %.0
}